target datalayout = "e-m:e-p270:32:32-p271:32:32-p272:64:64-i64:64-i128:128-f80:128-n8:16:32:64-S128"
target triple = "x86_64-pc-linux-gnu"

%struct.reserve_info = type { ptr, ptr, ptr, i32, i32, ptr, i64, ptr, i64, ptr, ptr, i32, ptr, i32, ptr, ptr, ptr, i32, i64, ptr, ptr }
%struct.resv_core_spec = type { ptr, ptr }

; Function Attrs: nounwind uwtable
define dso_local void @slurm_free_reserve_info_members(ptr noundef %0) #0 {
  %2 = alloca ptr, align 8
  %3 = alloca i32, align 4
  store ptr %0, ptr %2, align 8
  call void @llvm.lifetime.start.p0(i64 4, ptr %3) #11
  %4 = load ptr, ptr %2, align 8
  %5 = icmp ne ptr %4, null
  br i1 %5, label %6, label %60

6:                                                ; preds = %1
  %7 = load ptr, ptr %2, align 8
  %8 = getelementptr inbounds nuw %struct.reserve_info, ptr %7, i32 0, i32 0
  call void @slurm_xfree(ptr noundef %8)
  %9 = load ptr, ptr %2, align 8
  %10 = getelementptr inbounds nuw %struct.reserve_info, ptr %9, i32 0, i32 1
  call void @slurm_xfree(ptr noundef %10)
  %11 = load ptr, ptr %2, align 8
  %12 = getelementptr inbounds nuw %struct.reserve_info, ptr %11, i32 0, i32 5
  %13 = load ptr, ptr %12, align 8
  %14 = icmp ne ptr %13, null
  br i1 %14, label %15, label %43

15:                                               ; preds = %6
  store i32 0, ptr %3, align 4
  br label %16

16:                                               ; preds = %37, %15
  %17 = load i32, ptr %3, align 4
  %18 = load ptr, ptr %2, align 8
  %19 = getelementptr inbounds nuw %struct.reserve_info, ptr %18, i32 0, i32 4
  %20 = load i32, ptr %19, align 4
  %21 = icmp ult i32 %17, %20
  br i1 %21, label %22, label %40

22:                                               ; preds = %16
  %23 = load ptr, ptr %2, align 8
  %24 = getelementptr inbounds nuw %struct.reserve_info, ptr %23, i32 0, i32 5
  %25 = load ptr, ptr %24, align 8
  %26 = load i32, ptr %3, align 4
  %27 = sext i32 %26 to i64
  %28 = getelementptr inbounds %struct.resv_core_spec, ptr %25, i64 %27
  %29 = getelementptr inbounds nuw %struct.resv_core_spec, ptr %28, i32 0, i32 0
  call void @slurm_xfree(ptr noundef %29)
  %30 = load ptr, ptr %2, align 8
  %31 = getelementptr inbounds nuw %struct.reserve_info, ptr %30, i32 0, i32 5
  %32 = load ptr, ptr %31, align 8
  %33 = load i32, ptr %3, align 4
  %34 = sext i32 %33 to i64
  %35 = getelementptr inbounds %struct.resv_core_spec, ptr %32, i64 %34
  %36 = getelementptr inbounds nuw %struct.resv_core_spec, ptr %35, i32 0, i32 1
  call void @slurm_xfree(ptr noundef %36)
  br label %37

37:                                               ; preds = %22
  %38 = load i32, ptr %3, align 4
  %39 = add nsw i32 %38, 1
  store i32 %39, ptr %3, align 4
  br label %16, !llvm.loop !58

40:                                               ; preds = %16
  %41 = load ptr, ptr %2, align 8
  %42 = getelementptr inbounds nuw %struct.reserve_info, ptr %41, i32 0, i32 5
  call void @slurm_xfree(ptr noundef %42)
  br label %43

43:                                               ; preds = %40, %6
  %44 = load ptr, ptr %2, align 8
  %45 = getelementptr inbounds nuw %struct.reserve_info, ptr %44, i32 0, i32 7
  call void @slurm_xfree(ptr noundef %45)
  %46 = load ptr, ptr %2, align 8
  %47 = getelementptr inbounds nuw %struct.reserve_info, ptr %46, i32 0, i32 10
  call void @slurm_xfree(ptr noundef %47)
  %48 = load ptr, ptr %2, align 8
  %49 = getelementptr inbounds nuw %struct.reserve_info, ptr %48, i32 0, i32 12
  call void @slurm_xfree(ptr noundef %49)
  %50 = load ptr, ptr %2, align 8
  %51 = getelementptr inbounds nuw %struct.reserve_info, ptr %50, i32 0, i32 14
  call void @slurm_xfree(ptr noundef %51)
  %52 = load ptr, ptr %2, align 8
  %53 = getelementptr inbounds nuw %struct.reserve_info, ptr %52, i32 0, i32 15
  call void @slurm_xfree(ptr noundef %53)
  %54 = load ptr, ptr %2, align 8
  %55 = getelementptr inbounds nuw %struct.reserve_info, ptr %54, i32 0, i32 16
  call void @slurm_xfree(ptr noundef %55)
  %56 = load ptr, ptr %2, align 8
  %57 = getelementptr inbounds nuw %struct.reserve_info, ptr %56, i32 0, i32 19
  call void @slurm_xfree(ptr noundef %57)
  %58 = load ptr, ptr %2, align 8
  %59 = getelementptr inbounds nuw %struct.reserve_info, ptr %58, i32 0, i32 20
  call void @slurm_xfree(ptr noundef %59)
  br label %60

60:                                               ; preds = %43, %1
  call void @llvm.lifetime.end.p0(i64 4, ptr %3) #11
  ret void
}