; Function Attrs: nounwind uwtable
define dso_local void @slurm_free_reserve_info_members(ptr noundef %0) local_unnamed_addr #1 {
  %.not = icmp eq ptr %0, null
  br i1 %.not, label %24, label %2

2:                                                ; preds = %1
  tail call void @slurm_xfree(ptr noundef nonnull %0) #24
  %3 = getelementptr inbounds nuw i8, ptr %0, i64 8
  tail call void @slurm_xfree(ptr noundef nonnull %3) #24
  %4 = getelementptr inbounds nuw i8, ptr %0, i64 32
  %5 = load ptr, ptr %4, align 8
  %.not20 = icmp eq ptr %5, null
  br i1 %.not20, label %15, label %.preheader

.preheader:                                       ; preds = %2
  %6 = getelementptr inbounds nuw i8, ptr %0, i64 28
  %7 = load i32, ptr %6, align 4
  %.not22 = icmp eq i32 %7, 0
  br i1 %.not22, label %._crit_edge, label %.lr.ph

.lr.ph:                                           ; preds = %.preheader, %.lr.ph
  %indvars.iv = phi i64 [ %indvars.iv.next, %.lr.ph ], [ 0, %.preheader ]
  %8 = load ptr, ptr %4, align 8
  %9 = getelementptr inbounds nuw %struct.resv_core_spec, ptr %8, i64 %indvars.iv
  tail call void @slurm_xfree(ptr noundef %9) #24
  %10 = load ptr, ptr %4, align 8
  %11 = getelementptr inbounds nuw %struct.resv_core_spec, ptr %10, i64 %indvars.iv, i32 1
  tail call void @slurm_xfree(ptr noundef nonnull %11) #24
  %indvars.iv.next = add nuw nsw i64 %indvars.iv, 1
  %12 = load i32, ptr %6, align 4
  %13 = zext i32 %12 to i64
  %14 = icmp samesign ult i64 %indvars.iv.next, %13
  br i1 %14, label %.lr.ph, label %._crit_edge, !llvm.loop !59

._crit_edge:                                      ; preds = %.lr.ph, %.preheader
  tail call void @slurm_xfree(ptr noundef nonnull %4) #24
  br label %15

15:                                               ; preds = %._crit_edge, %2
  %16 = getelementptr inbounds nuw i8, ptr %0, i64 48
  tail call void @slurm_xfree(ptr noundef nonnull %16) #24
  %17 = getelementptr inbounds nuw i8, ptr %0, i64 72
  tail call void @slurm_xfree(ptr noundef nonnull %17) #24
  %18 = getelementptr inbounds nuw i8, ptr %0, i64 88
  tail call void @slurm_xfree(ptr noundef nonnull %18) #24
  %19 = getelementptr inbounds nuw i8, ptr %0, i64 104
  tail call void @slurm_xfree(ptr noundef nonnull %19) #24
  %20 = getelementptr inbounds nuw i8, ptr %0, i64 112
  tail call void @slurm_xfree(ptr noundef nonnull %20) #24
  %21 = getelementptr inbounds nuw i8, ptr %0, i64 120
  tail call void @slurm_xfree(ptr noundef nonnull %21) #24
  %22 = getelementptr inbounds nuw i8, ptr %0, i64 144
  tail call void @slurm_xfree(ptr noundef nonnull %22) #24
  %23 = getelementptr inbounds nuw i8, ptr %0, i64 152
  tail call void @slurm_xfree(ptr noundef nonnull %23) #24
  br label %24

24:                                               ; preds = %15, %1
  ret void
}